(lp0
I-1
aI-2
aI-1
aI0
aI-1
aI-2
aI-1
aI0
aI-1
aI0
aI-1
aI-2
aI-1
aI0
aI1
aI0
aI-1
aI-2
aI-3
aI-2
aI-1
aI0
aI-1
aI0
aI1
aI0
aI-1
aI-2
aI-1
aI-2
aI-3
aI-2
aI-1
aI-2
aI-1
aI-2
aI-3
aI-2
aI-3
aI-4
aI-5
aI-4
aI-3
aI-4
aI6
aI5
aI4
aI5
aI4
aI5
aI4
aI3
aI4
aI3
aI2
aI3
aI2
aI3
aI2
aI3
aI4
aI3
aI2
aI1
aI2
aI1
aI0
aI1
aI2
aI12
aI11
aI10
aI11
aI12
aI11
aI12
aI11
aI12
aI13
aI12
aI22
aI23
aI22
aI21
aI22
aI32
aI33
aI32
aI31
aI32
aI31
aI30
aI31
aI30
aI40
aI39
aI40
aI39
aI40
aI41
aI42
aI43
aI42
aI41
aI42
aI43
aI42
aI41
aI42
aI43
aI44
aI45
aI46
aI45
aI44
aI45
aI46
aI45
aI44
aI45
aI46
aI47
aI46
aI45
aI46
aI56
a.