(lp0
I-1
aI0
aI-1
aI0
aI1
aI0
aI-1
aI-2
aI-3
aI-2
aI-3
aI-4
aI-3
aI-4
aI-3
aI-4
aI-5
aI-6
aI-5
aI-6
aI-7
aI-6
aI-5
aI-6
aI-7
aI-6
aI-5
aI-4
aI-5
aI-4
aI-5
aI-4
aI-3
aI-2
aI-3
aI-2
aI-3
aI-4
aI-5
aI-4
aI-5
aI-4
aI-3
aI-4
aI-3
aI-4
aI-3
aI-4
aI-5
aI-4
aI-5
aI-6
aI-5
aI-6
aI-5
aI-4
aI-5
aI-6
aI-5
aI-4
aI-5
aI-4
aI-3
aI-2
aI-3
aI-4
aI-3
aI-4
aI-3
aI-4
aI-3
aI-4
aI-3
aI-4
aI-3
aI-4
aI-5
aI-4
aI-5
aI-4
aI-5
aI-6
aI-5
aI-4
aI-3
aI-4
aI-5
aI-4
aI-3
aI-2
aI-3
aI-2
aI-3
aI-2
aI-3
aI-4
aI-5
aI-4
aI-5
aI-6
aI-5
aI-6
aI-7
aI-8
aI-7
aI-6
aI-7
aI-6
aI-5
aI-6
aI4
aI5
aI4
aI3
aI4
aI14
aI15
aI16
aI15
aI14
aI24
aI25
aI24
aI25
aI24
aI34
a.