(lp0
I-1
aI0
aI-1
aI0
aI-1
aI0
aI1
aI0
aI-1
aI0
aI-1
aI0
aI-1
aI-2
aI-1
aI0
aI1
aI2
aI1
aI0
aI-1
aI-2
aI-1
aI-2
aI-1
aI-2
aI-1
aI-2
aI-3
aI-4
aI-3
aI-2
aI-1
aI-2
aI-1
aI0
aI1
aI0
aI1
aI0
aI-1
aI-2
aI-1
aI-2
aI-1
aI-2
aI8
aI9
aI10
aI11
aI10
aI9
aI10
aI20
aI19
aI20
aI21
aI20
aI19
aI20
aI21
aI20
aI19
aI20
aI21
aI20
aI21
aI20
aI21
aI20
aI19
aI18
aI19
aI20
aI19
aI18
aI19
aI20
aI19
aI18
aI19
aI20
aI21
aI22
aI21
aI20
aI21
aI20
aI21
aI20
aI19
aI20
aI19
aI18
aI19
aI18
aI17
aI16
aI17
aI16
aI17
aI18
aI17
aI18
aI17
aI18
aI17
aI16
aI17
aI16
aI26
aI27
aI28
aI29
aI28
aI27
aI28
aI29
aI28
aI29
aI30
aI31
aI30
aI31
aI30
aI31
aI30
aI31
aI30
aI29
aI30
aI31
aI30
aI29
aI30
aI31
aI32
aI31
aI32
aI33
aI32
aI31
aI32
a.