(lp0
I1
aI0
aI1
aI0
aI1
aI0
aI1
aI0
aI1
aI0
aI1
aI2
aI1
aI0
aI1
aI0
aI1
aI2
aI1
aI0
aI1
aI2
aI3
aI4
aI3
aI2
aI3
aI2
aI3
aI2
aI1
aI0
aI-1
aI0
aI-1
aI0
aI10
aI9
aI10
aI11
aI10
aI11
aI10
aI11
aI10
aI11
aI12
aI11
aI10
aI11
aI10
aI20
aI21
aI20
aI21
aI20
aI19
aI20
aI21
aI22
aI23
aI22
aI21
aI22
aI23
aI22
aI21
aI22
aI23
aI22
aI21
aI22
aI23
aI24
aI23
aI24
aI23
aI22
aI32
aI31
aI32
aI33
aI32
aI33
aI32
aI33
aI32
aI33
aI32
aI33
aI32
aI33
aI32
aI33
aI32
aI33
aI32
aI31
aI32
aI33
aI34
aI35
aI34
aI33
aI32
aI33
aI34
aI33
aI34
aI35
aI34
aI33
aI32
aI31
aI32
aI33
aI32
aI33
aI32
aI33
aI32
aI33
aI32
aI31
aI32
aI42
aI41
aI40
aI41
aI42
aI52
a.