(lp0
I1
aI0
aI-1
aI-2
aI-3
aI-2
aI-1
aI0
aI1
aI0
aI10
aI9
aI8
aI9
aI10
aI11
aI10
aI9
aI8
aI9
aI10
aI9
aI8
aI18
aI17
aI16
aI15
aI16
aI15
aI14
aI15
aI14
aI24
aI25
aI26
aI25
aI24
aI34
aI33
aI32
aI31
aI30
aI31
aI30
aI29
aI30
aI31
aI32
aI31
aI32
aI31
aI32
aI31
aI32
aI33
aI34
aI33
aI34
aI33
aI34
aI33
aI32
aI42
aI43
aI44
aI43
aI44
aI43
aI42
aI52
aI51
aI52
aI53
aI52
aI62
aI63
aI64
aI63
aI64
aI74
aI75
aI76
aI75
aI74
aI84
a.