(lp0
I1
aI2
aI1
aI0
aI1
aI0
aI1
aI2
aI3
aI2
aI12
aI11
aI12
aI11
aI12
aI11
aI12
aI11
aI12
aI13
aI12
aI11
aI12
aI11
aI10
aI11
aI10
aI9
aI10
aI9
aI8
aI9
aI10
aI9
aI8
aI18
aI19
aI20
aI19
aI20
aI19
aI18
aI19
aI18
aI17
aI18
aI28
aI27
aI26
aI25
aI26
aI27
aI26
aI25
aI26
aI36
aI37
aI38
aI37
aI36
aI37
aI38
aI39
aI40
aI39
aI40
aI50
aI49
aI50
aI49
aI48
aI58
aI57
aI56
aI57
aI56
aI66
aI67
aI68
aI67
aI68
aI67
aI66
aI67
aI68
aI67
aI68
aI78
aI77
aI78
aI77
aI76
aI86
a.