(lp0
I-1
aI0
aI-1
aI0
aI-1
aI0
aI1
aI2
aI3
aI4
aI3
aI4
aI3
aI4
aI14
aI13
aI12
aI13
aI12
aI13
aI14
aI24
aI23
aI22
aI23
aI22
aI23
aI22
aI23
aI22
aI21
aI20
aI30
aI29
aI30
aI29
aI28
aI38
aI39
aI40
aI39
aI38
aI48
aI49
aI48
aI49
aI48
aI47
aI48
aI49
aI48
aI49
aI50
aI49
aI48
aI49
aI48
aI58
aI59
aI58
aI59
aI58
aI57
aI58
aI68
aI67
aI68
aI67
aI68
aI67
aI68
aI69
aI68
aI69
aI68
aI69
aI68
aI69
aI68
aI69
aI68
aI67
aI66
aI65
aI66
aI76
aI77
aI76
aI75
aI76
aI86
a.