(lp0
I1
aI0
aI-1
aI0
aI-1
aI-2
aI8
aI7
aI6
aI7
aI8
aI7
aI8
aI7
aI6
aI7
aI6
aI5
aI4
aI14
aI15
aI14
aI13
aI14
aI24
aI23
aI24
aI25
aI24
aI23
aI24
aI34
aI35
aI34
aI35
aI34
aI33
aI34
aI44
aI45
aI44
aI43
aI42
aI41
aI42
aI52
aI53
aI54
aI53
aI52
aI62
aI61
aI60
aI61
aI62
aI63
aI62
aI61
aI62
aI72
aI71
aI70
aI71
aI72
aI82
aI81
aI80
aI79
aI80
aI90
a.