(lp0
I-1
aI0
aI-1
aI0
aI-1
aI0
aI1
aI0
aI1
aI2
aI3
aI2
aI3
aI4
aI3
aI4
aI3
aI4
aI3
aI4
aI14
aI13
aI12
aI13
aI12
aI11
aI10
aI20
aI19
aI20
aI19
aI20
aI21
aI20
aI30
aI29
aI28
aI27
aI26
aI36
aI35
aI34
aI35
aI36
aI35
aI34
aI44
aI43
aI44
aI43
aI42
aI41
aI42
aI52
aI53
aI52
aI51
aI52
aI62
aI63
aI64
aI63
aI62
aI63
aI62
aI72
aI71
aI70
aI71
aI70
aI80
a.