(lp0
I-1
aI-2
aI-3
aI-2
aI-1
aI0
aI-1
aI0
aI10
aI11
aI12
aI13
aI12
aI13
aI12
aI13
aI14
aI13
aI12
aI13
aI14
aI13
aI12
aI13
aI14
aI13
aI12
aI11
aI10
aI11
aI10
aI20
aI19
aI18
aI17
aI18
aI17
aI18
aI28
aI29
aI30
aI29
aI28
aI27
aI28
aI38
aI37
aI38
aI39
aI38
aI37
aI38
aI39
aI38
aI37
aI36
aI35
aI36
aI46
aI45
aI44
aI45
aI44
aI54
aI55
aI54
aI53
aI54
aI55
aI56
aI55
aI56
aI66
aI67
aI68
aI69
aI68
aI67
aI68
aI78
aI77
aI76
aI77
aI78
aI88
a.