(lp0
I-1
aI0
aI-1
aI0
aI-1
aI0
aI-1
aI0
aI10
aI9
aI8
aI7
aI8
aI7
aI8
aI9
aI8
aI9
aI8
aI18
aI17
aI18
aI17
aI18
aI17
aI16
aI17
aI16
aI26
aI25
aI26
aI27
aI26
aI27
aI26
aI27
aI26
aI25
aI26
aI36
aI35
aI36
aI35
aI36
aI35
aI34
aI35
aI36
aI35
aI36
aI35
aI34
aI35
aI34
aI44
aI43
aI42
aI43
aI42
aI43
aI44
aI43
aI42
aI43
aI44
aI54
aI55
aI54
aI53
aI54
aI53
aI54
aI64
aI65
aI64
aI63
aI62
aI72
aI73
aI72
aI71
aI70
aI80
aI81
aI82
aI81
aI80
aI81
aI82
aI92
a.