(lp0
I-1
aI0
aI-1
aI0
aI-1
aI0
aI-1
aI0
aI1
aI0
aI1
aI2
aI1
aI2
aI3
aI4
aI3
aI4
aI5
aI4
aI3
aI4
aI5
aI4
aI5
aI4
aI3
aI2
aI3
aI4
aI3
aI2
aI1
aI0
aI1
aI0
aI1
aI0
aI-1
aI-2
aI-3
aI-2
aI8
aI7
aI6
aI7
aI6
aI5
aI6
aI5
aI6
aI16
aI15
aI16
aI17
aI18
aI17
aI16
aI17
aI16
aI15
aI16
aI15
aI16
aI15
aI14
aI13
aI14
aI15
aI14
aI13
aI12
aI13
aI14
aI13
aI12
aI11
aI12
aI13
aI14
aI15
aI14
aI13
aI14
aI15
aI16
aI15
aI14
aI15
aI16
aI15
aI16
aI17
aI18
aI17
aI16
aI17
aI18
aI17
aI18
aI17
aI16
aI17
aI16
aI15
aI16
aI15
aI16
aI15
aI16
aI26
aI25
aI26
aI25
aI26
aI25
aI24
aI25
aI24
aI25
aI24
aI25
aI24
aI23
aI24
aI34
aI35
aI36
aI37
aI36
aI37
aI38
aI37
aI36
aI35
aI34
aI35
aI34
aI35
aI34
aI33
aI34
a.