(lp0
I-1
aI-2
aI-1
aI0
aI-1
aI0
aI-1
aI0
aI-1
aI-2
aI-1
aI0
aI-1
aI-2
aI-1
aI-2
aI-3
aI-4
aI-3
aI-2
aI-3
aI-2
aI-3
aI-2
aI-1
aI-2
aI-3
aI-2
aI-3
aI-2
aI-3
aI-2
aI-3
aI-4
aI-3
aI-2
aI-1
aI-2
aI-3
aI-2
aI-1
aI-2
aI-3
aI-4
aI-3
aI-4
aI-3
aI-2
aI-3
aI-4
aI-3
aI-2
aI-3
aI-2
aI-1
aI0
aI-1
aI-2
aI-3
aI-2
aI-3
aI-4
aI-3
aI-4
aI-5
aI-6
aI-5
aI-6
aI-5
aI-4
aI-5
aI-4
aI-5
aI-4
aI-5
aI-6
aI-7
aI-6
aI-5
aI-6
aI-7
aI-6
aI-7
aI-6
aI-7
aI-6
aI-7
aI-6
aI-5
aI-4
aI6
aI7
aI8
aI7
aI8
aI7
aI8
aI7
aI8
aI9
aI10
aI9
aI8
aI9
aI10
aI9
aI8
aI7
aI8
aI7
aI8
aI7
aI8
aI9
aI8
aI9
aI10
aI11
aI12
aI11
aI10
aI9
aI10
aI9
aI10
aI11
aI12
aI11
aI12
aI13
aI12
aI11
aI10
aI11
aI12
aI11
aI12
aI13
aI12
aI13
aI12
aI11
aI12
aI13
aI14
aI13
aI14
aI13
aI14
aI13
aI12
aI13
aI12
aI11
aI12
a.