(lp0
I-1
aI-2
aI-3
aI-2
aI-1
aI0
aI-1
aI0
aI-1
aI-2
aI-1
aI0
aI-1
aI-2
aI-1
aI-2
aI-1
aI-2
aI-3
aI-2
aI-1
aI-2
aI8
aI9
aI10
aI9
aI8
aI9
aI8
aI7
aI8
aI9
aI8
aI7
aI8
aI9
aI8
aI7
aI8
aI7
aI6
aI5
aI6
aI5
aI6
aI7
aI8
aI7
aI6
aI7
aI6
aI5
aI6
aI7
aI8
aI9
aI8
aI7
aI6
aI7
aI8
aI9
aI8
aI9
aI10
aI9
aI8
aI9
aI10
aI9
aI10
aI9
aI8
aI7
aI8
aI9
aI10
aI9
aI8
aI9
aI10
aI9
aI8
aI9
aI8
aI9
aI8
aI9
aI8
aI9
aI8
aI7
aI6
aI7
aI8
aI18
aI19
aI18
aI19
aI20
aI19
aI20
aI21
aI22
aI21
aI22
aI23
aI22
aI23
aI24
aI23
aI22
aI21
aI20
aI21
aI22
aI23
aI24
aI23
aI24
aI25
aI24
aI23
aI22
aI32
aI31
aI30
aI31
aI32
aI31
aI30
aI31
aI32
aI33
aI32
aI31
aI32
aI31
aI30
aI29
aI30
a.