(lp0
I-1
aI0
aI-1
aI-2
aI-1
aI-2
aI-3
aI-2
aI-3
aI-2
aI-3
aI-2
aI-1
aI0
aI-1
aI-2
aI-3
aI-4
aI-3
aI-4
aI-5
aI-4
aI-5
aI-6
aI-5
aI-4
aI-5
aI-6
aI-5
aI-6
aI-7
aI-6
aI-5
aI-6
aI-7
aI-6
aI-5
aI-4
aI-3
aI-4
aI-5
aI-4
aI-3
aI-4
aI-5
aI-4
aI-3
aI-2
aI-1
aI-2
aI-3
aI-2
aI-1
aI0
aI-1
aI0
aI-1
aI0
aI1
aI2
aI1
aI0
aI1
aI2
aI3
aI4
aI3
aI2
aI3
aI4
aI3
aI4
aI5
aI6
aI5
aI4
aI5
aI6
aI7
aI8
aI9
aI8
aI9
aI8
aI7
aI8
aI9
aI8
aI7
aI8
aI18
aI17
aI18
aI19
aI18
aI17
aI18
aI17
aI18
aI19
aI18
aI19
aI20
aI19
aI18
aI17
aI18
aI19
aI18
aI17
aI18
aI19
aI20
aI19
aI18
aI19
aI18
aI17
aI18
aI19
aI18
aI19
aI18
aI19
aI20
aI21
aI20
aI19
aI20
aI21
aI20
aI19
aI18
aI28
aI27
aI28
aI29
aI28
aI27
aI28
aI38
a.