(lp0
I-1
aI-2
aI-3
aI-2
aI-1
aI-2
aI-1
aI0
aI-1
aI-2
aI-3
aI-2
aI-1
aI0
aI1
aI0
aI-1
aI-2
aI-1
aI0
aI1
aI0
aI-1
aI-2
aI8
aI9
aI8
aI7
aI8
aI9
aI10
aI9
aI8
aI18
aI19
aI18
aI17
aI18
aI19
aI18
aI17
aI18
aI17
aI16
aI15
aI16
aI26
aI27
aI26
aI25
aI26
aI27
aI26
aI25
aI26
aI25
aI24
aI23
aI24
aI25
aI26
aI25
aI24
aI25
aI26
aI25
aI24
aI23
aI22
aI23
aI24
aI23
aI22
aI23
aI24
aI25
aI24
aI23
aI22
aI23
aI22
aI21
aI22
aI32
aI33
aI34
aI35
aI34
aI33
aI34
aI44
aI43
aI42
aI41
aI42
aI43
aI42
aI41
aI40
aI39
aI40
aI39
aI38
aI37
aI38
aI39
aI38
aI37
aI38
aI39
aI38
aI37
aI38
aI39
aI38
aI37
aI38
aI39
aI38
aI39
aI38
aI37
aI38
a.