(lp0
I1
aI0
aI-1
aI0
aI-1
aI0
aI-1
aI-2
aI-1
aI0
aI-1
aI-2
aI-3
aI-2
aI-3
aI-4
aI-5
aI-4
aI-3
aI-4
aI-5
aI-4
aI-5
aI-6
aI-7
aI-8
aI-7
aI-8
aI-9
aI-8
aI-9
aI-8
aI-9
aI-8
aI-7
aI-8
aI-7
aI-6
aI-7
aI-8
aI-7
aI-6
aI4
aI3
aI4
aI3
aI2
aI1
aI2
aI1
aI0
aI1
aI2
aI1
aI0
aI10
aI9
aI8
aI7
aI6
aI5
aI6
aI7
aI8
aI7
aI8
aI9
aI8
aI7
aI8
aI7
aI6
aI5
aI4
aI5
aI6
aI5
aI4
aI3
aI4
aI3
aI4
aI5
aI4
aI3
aI2
aI1
aI2
aI3
aI2
aI3
aI4
aI3
aI4
aI14
aI15
aI14
aI15
aI14
aI13
aI14
aI15
aI14
aI15
aI16
aI15
aI16
aI17
aI16
aI17
aI16
aI17
aI16
aI15
aI16
aI15
aI14
aI13
aI14
aI15
aI16
aI17
aI16
aI26
aI25
aI26
aI25
aI24
aI23
aI24
aI23
aI22
aI32
a.