(lp0
I-1
aI-2
aI-1
aI0
aI1
aI0
aI-1
aI0
aI1
aI0
aI-1
aI0
aI-1
aI0
aI-1
aI0
aI1
aI0
aI1
aI0
aI1
aI2
aI1
aI2
aI3
aI2
aI1
aI0
aI1
aI0
aI-1
aI0
aI1
aI0
aI-1
aI0
aI1
aI0
aI-1
aI0
aI1
aI2
aI1
aI0
aI1
aI2
aI1
aI0
aI1
aI0
aI1
aI0
aI-1
aI0
aI-1
aI-2
aI-3
aI-4
aI-5
aI-4
aI-3
aI-2
aI-1
aI-2
aI-3
aI-4
aI-3
aI-2
aI-3
aI-2
aI-3
aI-2
aI-3
aI-4
aI6
aI7
aI6
aI5
aI4
aI5
aI6
aI5
aI4
aI3
aI4
aI5
aI6
aI7
aI6
aI16
aI15
aI16
aI17
aI16
aI15
aI14
aI15
aI16
aI17
aI16
aI15
aI14
aI15
aI16
aI15
aI14
aI13
aI12
aI13
aI12
aI11
aI10
aI11
aI12
aI13
aI12
aI22
aI23
aI24
aI23
aI22
aI21
aI22
aI21
aI20
aI21
aI22
aI21
aI20
aI19
aI18
aI19
aI20
aI21
aI20
aI19
aI18
aI19
aI20
aI19
aI18
aI28
a.